target datalayout = "e-m:e-p270:32:32-p271:32:32-p272:64:64-i64:64-i128:128-f80:128-n8:16:32:64-S128"
target triple = "x86_64-pc-linux-gnu"

%struct.ARKodeARKStepMemRec = type { ptr, ptr, i32, i32, i32, i32, i32, i32, ptr, ptr, ptr, ptr, ptr, ptr, i32, i32, i32, i32, ptr, ptr, ptr, ptr, i32, ptr, double, double, double, double, i32, double, double, double, double, double, double, i32, i64, i32, i32, i32, ptr, ptr, ptr, ptr, ptr, ptr, i32, ptr, ptr, ptr, ptr, ptr, ptr, i32, i32, i64, i64, i64, i64, i64, ptr, ptr, i32, i32, i32, double, double, ptr, i32, ptr, ptr }

@.str = private unnamed_addr constant [126 x i8] c"generated/home/dtcxzyw/WorkSpace/Projects/compilers/llvm-opt-benchmark/bench/sundials/sundials/src/arkode/arkode_arkstep_io.c\00", align 1
@__func__.arkStep_SetLinear = private unnamed_addr constant [18 x i8] c"arkStep_SetLinear\00", align 1
@.str.20 = private unnamed_addr constant [84 x i8] c"Incompatible settings, the problem is autonomous but the Jacobian is time dependent\00", align 1

; Function Attrs: nounwind uwtable
define i32 @arkStep_SetLinear(ptr noundef %0, i32 noundef %1) #0 {
  %3 = alloca i32, align 4
  %4 = alloca ptr, align 8
  %5 = alloca i32, align 4
  %6 = alloca ptr, align 8
  %7 = alloca i32, align 4
  %8 = alloca i32, align 4
  store ptr %0, ptr %4, align 8, !tbaa !20
  store i32 %1, ptr %5, align 4, !tbaa !7
  call void @llvm.lifetime.start.p0(i64 8, ptr %6) #4
  call void @llvm.lifetime.start.p0(i64 4, ptr %7) #4
  %9 = load ptr, ptr %4, align 8, !tbaa !20
  %10 = call i32 @arkStep_AccessStepMem(ptr noundef %9, ptr noundef @__func__.arkStep_SetLinear, ptr noundef %6)
  store i32 %10, ptr %7, align 4, !tbaa !7
  %11 = load i32, ptr %7, align 4, !tbaa !7
  %12 = icmp ne i32 %11, 0
  br i1 %12, label %13, label %15

13:                                               ; preds = %2
  %14 = load i32, ptr %7, align 4, !tbaa !7
  store i32 %14, ptr %3, align 4
  store i32 1, ptr %8, align 4
  br label %35

15:                                               ; preds = %2
  %16 = load i32, ptr %5, align 4, !tbaa !7
  %17 = icmp ne i32 %16, 0
  br i1 %17, label %18, label %25

18:                                               ; preds = %15
  %19 = load ptr, ptr %6, align 8, !tbaa !9
  %20 = getelementptr inbounds nuw %struct.ARKodeARKStepMemRec, ptr %19, i32 0, i32 2
  %21 = load i32, ptr %20, align 8, !tbaa !71
  %22 = icmp ne i32 %21, 0
  br i1 %22, label %23, label %25

23:                                               ; preds = %18
  %24 = load ptr, ptr %4, align 8, !tbaa !20
  call void (ptr, i32, i32, ptr, ptr, ptr, ...) @arkProcessError(ptr noundef %24, i32 noundef -22, i32 noundef 840, ptr noundef @__func__.arkStep_SetLinear, ptr noundef @.str, ptr noundef @.str.20)
  store i32 -22, ptr %3, align 4
  store i32 1, ptr %8, align 4
  br label %35

25:                                               ; preds = %18, %15
  %26 = load ptr, ptr %6, align 8, !tbaa !9
  %27 = getelementptr inbounds nuw %struct.ARKodeARKStepMemRec, ptr %26, i32 0, i32 3
  store i32 1, ptr %27, align 4, !tbaa !69
  %28 = load i32, ptr %5, align 4, !tbaa !7
  %29 = icmp eq i32 %28, 1
  %30 = zext i1 %29 to i32
  %31 = load ptr, ptr %6, align 8, !tbaa !9
  %32 = getelementptr inbounds nuw %struct.ARKodeARKStepMemRec, ptr %31, i32 0, i32 4
  store i32 %30, ptr %32, align 8, !tbaa !70
  %33 = load ptr, ptr %6, align 8, !tbaa !9
  %34 = getelementptr inbounds nuw %struct.ARKodeARKStepMemRec, ptr %33, i32 0, i32 27
  store double 0x3D19000000000000, ptr %34, align 8, !tbaa !77
  store i32 0, ptr %3, align 4
  store i32 1, ptr %8, align 4
  br label %35

35:                                               ; preds = %25, %23, %13
  call void @llvm.lifetime.end.p0(i64 4, ptr %7) #4
  call void @llvm.lifetime.end.p0(i64 8, ptr %6) #4
  %36 = load i32, ptr %3, align 4
  ret i32 %36
}