; Function Attrs: nounwind uwtable
define i32 @arkStep_SetLinear(ptr noundef %0, i32 noundef %1) local_unnamed_addr #0 {
  %3 = alloca ptr, align 8
  call void @llvm.lifetime.start.p0(i64 8, ptr nonnull %3) #5
  %4 = call i32 @arkStep_AccessStepMem(ptr noundef %0, ptr noundef nonnull @__func__.arkStep_SetLinear, ptr noundef nonnull %3) #5
  %.not = icmp eq i32 %4, 0
  br i1 %.not, label %5, label %16

5:                                                ; preds = %2
  %.not7 = icmp eq i32 %1, 0
  %.pre = load ptr, ptr %3, align 8, !tbaa !3
  br i1 %.not7, label %10, label %6

6:                                                ; preds = %5
  %7 = getelementptr inbounds nuw i8, ptr %.pre, i64 16
  %8 = load i32, ptr %7, align 8, !tbaa !63
  %.not8 = icmp eq i32 %8, 0
  br i1 %.not8, label %10, label %9

9:                                                ; preds = %6
  call void (ptr, i32, i32, ptr, ptr, ptr, ...) @arkProcessError(ptr noundef %0, i32 noundef -22, i32 noundef 840, ptr noundef nonnull @__func__.arkStep_SetLinear, ptr noundef nonnull @.str, ptr noundef nonnull @.str.20) #5
  br label %16

10:                                               ; preds = %6, %5
  %11 = getelementptr inbounds nuw i8, ptr %.pre, i64 20
  store i32 1, ptr %11, align 4, !tbaa !61
  %12 = icmp eq i32 %1, 1
  %13 = zext i1 %12 to i32
  %14 = getelementptr inbounds nuw i8, ptr %.pre, i64 24
  store i32 %13, ptr %14, align 8, !tbaa !62
  %15 = getelementptr inbounds nuw i8, ptr %.pre, i64 176
  store double 0x3D19000000000000, ptr %15, align 8, !tbaa !69
  br label %16

16:                                               ; preds = %2, %10, %9
  %.0 = phi i32 [ -22, %9 ], [ 0, %10 ], [ %4, %2 ]
  call void @llvm.lifetime.end.p0(i64 8, ptr nonnull %3) #5
  ret i32 %.0
}